target datalayout = "e-m:e-p270:32:32-p271:32:32-p272:64:64-i64:64-i128:128-f80:128-n8:16:32:64-S128"
target triple = "x86_64-pc-linux-gnu"

@hf_homeplug_av_lnk_stats_rx = internal global i32 0, align 4
@hf_homeplug_av_lnk_stats_rx_mpdu_ack = internal global i32 0, align 4
@hf_homeplug_av_lnk_stats_rx_mpdu_fai = internal global i32 0, align 4
@hf_homeplug_av_lnk_stats_rx_pbs_pass = internal global i32 0, align 4
@hf_homeplug_av_lnk_stats_rx_pbs_fail = internal global i32 0, align 4
@hf_homeplug_av_lnk_stats_rx_tb_pass = internal global i32 0, align 4
@hf_homeplug_av_lnk_stats_rx_tb_fail = internal global i32 0, align 4
@hf_homeplug_av_lnk_stats_rx_num_int = internal global i32 0, align 4
@hf_homeplug_av_rx_inv_stats = internal global i32 0, align 4
@hf_homeplug_av_rx_inv_phy_rate = internal global i32 0, align 4
@hf_homeplug_av_rx_inv_pbs_pass = internal global i32 0, align 4
@hf_homeplug_av_rx_inv_pbs_fail = internal global i32 0, align 4
@hf_homeplug_av_rx_inv_tb_pass = internal global i32 0, align 4
@hf_homeplug_av_rx_inv_tb_fail = internal global i32 0, align 4
@ett_homeplug_av_lnk_stats_rx = internal global i32 0, align 4
@ett_homeplug_av_lnk_stats_rx_inv = internal global i32 0, align 4

; Function Attrs: nounwind uwtable
define internal void @dissect_homeplug_av_lnk_stats_rx_interval(ptr noundef %0) #0 {
  %2 = alloca ptr, align 8
  %3 = alloca ptr, align 8
  store ptr %0, ptr %2, align 8
  %4 = load ptr, ptr %2, align 8
  %5 = call ptr @ptvcursor_tree(ptr noundef %4)
  %6 = icmp ne ptr %5, null
  br i1 %6, label %8, label %7

7:                                                ; preds = %1
  br label %32

8:                                                ; preds = %1
  %9 = load ptr, ptr %2, align 8
  %10 = load i32, ptr @hf_homeplug_av_rx_inv_stats, align 4
  %11 = call ptr @ptvcursor_add_no_advance(ptr noundef %9, i32 noundef %10, i32 noundef -1, i32 noundef 0)
  store ptr %11, ptr %3, align 8
  %12 = load ptr, ptr %2, align 8
  %13 = load ptr, ptr %3, align 8
  %14 = load i32, ptr @ett_homeplug_av_lnk_stats_rx_inv, align 4
  %15 = call ptr @ptvcursor_push_subtree(ptr noundef %12, ptr noundef %13, i32 noundef %14)
  %16 = load ptr, ptr %2, align 8
  %17 = load i32, ptr @hf_homeplug_av_rx_inv_phy_rate, align 4
  %18 = call ptr @ptvcursor_add(ptr noundef %16, i32 noundef %17, i32 noundef 1, i32 noundef 0)
  %19 = load ptr, ptr %2, align 8
  %20 = load i32, ptr @hf_homeplug_av_rx_inv_pbs_pass, align 4
  %21 = call ptr @ptvcursor_add(ptr noundef %19, i32 noundef %20, i32 noundef 8, i32 noundef -2147483648)
  %22 = load ptr, ptr %2, align 8
  %23 = load i32, ptr @hf_homeplug_av_rx_inv_pbs_fail, align 4
  %24 = call ptr @ptvcursor_add(ptr noundef %22, i32 noundef %23, i32 noundef 8, i32 noundef -2147483648)
  %25 = load ptr, ptr %2, align 8
  %26 = load i32, ptr @hf_homeplug_av_rx_inv_tb_pass, align 4
  %27 = call ptr @ptvcursor_add(ptr noundef %25, i32 noundef %26, i32 noundef 8, i32 noundef -2147483648)
  %28 = load ptr, ptr %2, align 8
  %29 = load i32, ptr @hf_homeplug_av_rx_inv_tb_fail, align 4
  %30 = call ptr @ptvcursor_add(ptr noundef %28, i32 noundef %29, i32 noundef 8, i32 noundef -2147483648)
  %31 = load ptr, ptr %2, align 8
  call void @ptvcursor_pop_subtree(ptr noundef %31)
  br label %32

32:                                               ; preds = %8, %7
  ret void
}

; Function Attrs: nounwind uwtable
define internal void @dissect_homeplug_av_lnk_stats_rx(ptr noundef %0) #0 {
  %2 = alloca ptr, align 8
  %3 = alloca ptr, align 8
  %4 = alloca i8, align 1
  %5 = alloca i8, align 1
  store ptr %0, ptr %2, align 8
  %6 = load ptr, ptr %2, align 8
  %7 = call ptr @ptvcursor_tree(ptr noundef %6)
  %8 = icmp ne ptr %7, null
  br i1 %8, label %10, label %9

9:                                                ; preds = %1
  br label %57

10:                                               ; preds = %1
  %11 = load ptr, ptr %2, align 8
  %12 = load i32, ptr @hf_homeplug_av_lnk_stats_rx, align 4
  %13 = call ptr @ptvcursor_add_no_advance(ptr noundef %11, i32 noundef %12, i32 noundef -1, i32 noundef 0)
  store ptr %13, ptr %3, align 8
  %14 = load ptr, ptr %2, align 8
  %15 = load ptr, ptr %3, align 8
  %16 = load i32, ptr @ett_homeplug_av_lnk_stats_rx, align 4
  %17 = call ptr @ptvcursor_push_subtree(ptr noundef %14, ptr noundef %15, i32 noundef %16)
  %18 = load ptr, ptr %2, align 8
  %19 = load i32, ptr @hf_homeplug_av_lnk_stats_rx_mpdu_ack, align 4
  %20 = call ptr @ptvcursor_add(ptr noundef %18, i32 noundef %19, i32 noundef 8, i32 noundef -2147483648)
  %21 = load ptr, ptr %2, align 8
  %22 = load i32, ptr @hf_homeplug_av_lnk_stats_rx_mpdu_fai, align 4
  %23 = call ptr @ptvcursor_add(ptr noundef %21, i32 noundef %22, i32 noundef 8, i32 noundef -2147483648)
  %24 = load ptr, ptr %2, align 8
  %25 = load i32, ptr @hf_homeplug_av_lnk_stats_rx_pbs_pass, align 4
  %26 = call ptr @ptvcursor_add(ptr noundef %24, i32 noundef %25, i32 noundef 8, i32 noundef -2147483648)
  %27 = load ptr, ptr %2, align 8
  %28 = load i32, ptr @hf_homeplug_av_lnk_stats_rx_pbs_fail, align 4
  %29 = call ptr @ptvcursor_add(ptr noundef %27, i32 noundef %28, i32 noundef 8, i32 noundef -2147483648)
  %30 = load ptr, ptr %2, align 8
  %31 = load i32, ptr @hf_homeplug_av_lnk_stats_rx_tb_pass, align 4
  %32 = call ptr @ptvcursor_add(ptr noundef %30, i32 noundef %31, i32 noundef 8, i32 noundef -2147483648)
  %33 = load ptr, ptr %2, align 8
  %34 = load i32, ptr @hf_homeplug_av_lnk_stats_rx_tb_fail, align 4
  %35 = call ptr @ptvcursor_add(ptr noundef %33, i32 noundef %34, i32 noundef 8, i32 noundef -2147483648)
  %36 = load ptr, ptr %2, align 8
  %37 = call ptr @ptvcursor_tvbuff(ptr noundef %36)
  %38 = load ptr, ptr %2, align 8
  %39 = call i32 @ptvcursor_current_offset(ptr noundef %38)
  %40 = call zeroext i8 @tvb_get_guint8(ptr noundef %37, i32 noundef %39)
  store i8 %40, ptr %4, align 1
  %41 = load ptr, ptr %2, align 8
  %42 = load i32, ptr @hf_homeplug_av_lnk_stats_rx_num_int, align 4
  %43 = call ptr @ptvcursor_add(ptr noundef %41, i32 noundef %42, i32 noundef 1, i32 noundef 0)
  store i8 0, ptr %5, align 1
  br label %44

44:                                               ; preds = %52, %10
  %45 = load i8, ptr %5, align 1
  %46 = zext i8 %45 to i32
  %47 = load i8, ptr %4, align 1
  %48 = zext i8 %47 to i32
  %49 = icmp slt i32 %46, %48
  br i1 %49, label %50, label %55

50:                                               ; preds = %44
  %51 = load ptr, ptr %2, align 8
  call void @dissect_homeplug_av_lnk_stats_rx_interval(ptr noundef %51)
  br label %52

52:                                               ; preds = %50
  %53 = load i8, ptr %5, align 1
  %54 = add i8 %53, 1
  store i8 %54, ptr %5, align 1
  br label %44, !llvm.loop !16

55:                                               ; preds = %44
  %56 = load ptr, ptr %2, align 8
  call void @ptvcursor_pop_subtree(ptr noundef %56)
  br label %57

57:                                               ; preds = %55, %9
  ret void
}