; Function Attrs: nounwind uwtable
define internal fastcc void @dissect_homeplug_av_lnk_stats_rx(ptr noundef %0) unnamed_addr #0 {
  %2 = tail call ptr @ptvcursor_tree(ptr noundef %0) #5
  %.not = icmp eq ptr %2, null
  br i1 %.not, label %42, label %3

3:                                                ; preds = %1
  %4 = load i32, ptr @hf_homeplug_av_lnk_stats_rx, align 4
  %5 = tail call ptr @ptvcursor_add_no_advance(ptr noundef %0, i32 noundef %4, i32 noundef -1, i32 noundef 0) #5
  %6 = load i32, ptr @ett_homeplug_av_lnk_stats_rx, align 4
  %7 = tail call ptr @ptvcursor_push_subtree(ptr noundef %0, ptr noundef %5, i32 noundef %6) #5
  %8 = load i32, ptr @hf_homeplug_av_lnk_stats_rx_mpdu_ack, align 4
  %9 = tail call ptr @ptvcursor_add(ptr noundef %0, i32 noundef %8, i32 noundef 8, i32 noundef -2147483648) #5
  %10 = load i32, ptr @hf_homeplug_av_lnk_stats_rx_mpdu_fai, align 4
  %11 = tail call ptr @ptvcursor_add(ptr noundef %0, i32 noundef %10, i32 noundef 8, i32 noundef -2147483648) #5
  %12 = load i32, ptr @hf_homeplug_av_lnk_stats_rx_pbs_pass, align 4
  %13 = tail call ptr @ptvcursor_add(ptr noundef %0, i32 noundef %12, i32 noundef 8, i32 noundef -2147483648) #5
  %14 = load i32, ptr @hf_homeplug_av_lnk_stats_rx_pbs_fail, align 4
  %15 = tail call ptr @ptvcursor_add(ptr noundef %0, i32 noundef %14, i32 noundef 8, i32 noundef -2147483648) #5
  %16 = load i32, ptr @hf_homeplug_av_lnk_stats_rx_tb_pass, align 4
  %17 = tail call ptr @ptvcursor_add(ptr noundef %0, i32 noundef %16, i32 noundef 8, i32 noundef -2147483648) #5
  %18 = load i32, ptr @hf_homeplug_av_lnk_stats_rx_tb_fail, align 4
  %19 = tail call ptr @ptvcursor_add(ptr noundef %0, i32 noundef %18, i32 noundef 8, i32 noundef -2147483648) #5
  %20 = tail call ptr @ptvcursor_tvbuff(ptr noundef %0) #5
  %21 = tail call i32 @ptvcursor_current_offset(ptr noundef %0) #5
  %22 = tail call zeroext i8 @tvb_get_guint8(ptr noundef %20, i32 noundef %21) #5
  %23 = load i32, ptr @hf_homeplug_av_lnk_stats_rx_num_int, align 4
  %24 = tail call ptr @ptvcursor_add(ptr noundef %0, i32 noundef %23, i32 noundef 1, i32 noundef 0) #5
  %.not18 = icmp eq i8 %22, 0
  br i1 %.not18, label %._crit_edge, label %.lr.ph

.lr.ph:                                           ; preds = %3, %dissect_homeplug_av_lnk_stats_rx_interval.exit
  %.017 = phi i8 [ %41, %dissect_homeplug_av_lnk_stats_rx_interval.exit ], [ 0, %3 ]
  %25 = tail call ptr @ptvcursor_tree(ptr noundef %0) #5
  %.not.i = icmp eq ptr %25, null
  br i1 %.not.i, label %dissect_homeplug_av_lnk_stats_rx_interval.exit, label %26

26:                                               ; preds = %.lr.ph
  %27 = load i32, ptr @hf_homeplug_av_rx_inv_stats, align 4
  %28 = tail call ptr @ptvcursor_add_no_advance(ptr noundef %0, i32 noundef %27, i32 noundef -1, i32 noundef 0) #5
  %29 = load i32, ptr @ett_homeplug_av_lnk_stats_rx_inv, align 4
  %30 = tail call ptr @ptvcursor_push_subtree(ptr noundef %0, ptr noundef %28, i32 noundef %29) #5
  %31 = load i32, ptr @hf_homeplug_av_rx_inv_phy_rate, align 4
  %32 = tail call ptr @ptvcursor_add(ptr noundef %0, i32 noundef %31, i32 noundef 1, i32 noundef 0) #5
  %33 = load i32, ptr @hf_homeplug_av_rx_inv_pbs_pass, align 4
  %34 = tail call ptr @ptvcursor_add(ptr noundef %0, i32 noundef %33, i32 noundef 8, i32 noundef -2147483648) #5
  %35 = load i32, ptr @hf_homeplug_av_rx_inv_pbs_fail, align 4
  %36 = tail call ptr @ptvcursor_add(ptr noundef %0, i32 noundef %35, i32 noundef 8, i32 noundef -2147483648) #5
  %37 = load i32, ptr @hf_homeplug_av_rx_inv_tb_pass, align 4
  %38 = tail call ptr @ptvcursor_add(ptr noundef %0, i32 noundef %37, i32 noundef 8, i32 noundef -2147483648) #5
  %39 = load i32, ptr @hf_homeplug_av_rx_inv_tb_fail, align 4
  %40 = tail call ptr @ptvcursor_add(ptr noundef %0, i32 noundef %39, i32 noundef 8, i32 noundef -2147483648) #5
  tail call void @ptvcursor_pop_subtree(ptr noundef %0) #5
  br label %dissect_homeplug_av_lnk_stats_rx_interval.exit

dissect_homeplug_av_lnk_stats_rx_interval.exit:   ; preds = %.lr.ph, %26
  %41 = add nuw i8 %.017, 1
  %exitcond.not = icmp eq i8 %41, %22
  br i1 %exitcond.not, label %._crit_edge, label %.lr.ph, !llvm.loop !23

._crit_edge:                                      ; preds = %dissect_homeplug_av_lnk_stats_rx_interval.exit, %3
  tail call void @ptvcursor_pop_subtree(ptr noundef %0) #5
  br label %42

42:                                               ; preds = %1, %._crit_edge
  ret void
}